(dp0
S'sensor_type'
p1
S'dylos'
p2
sS'serial_connection'
p3
S'serial_port, baudrate=9600, parity=serial.PARITY_NONE, stopbits=serial.STOPBITS_TWO, bytesize=serial.EIGHTBITS, writeTimeout=0, timeout=10'
p4
sS'sensor_values'
p5
S'Dylos ID,Location,Date,Pm 0.5-2.5,Pm > 2.5'
p6
s.